target datalayout = "e-m:e-p270:32:32-p271:32:32-p272:64:64-i64:64-i128:128-f80:128-n8:16:32:64-S128"
target triple = "x86_64-pc-linux-gnu"

%struct.conf_method_st = type { ptr, ptr, ptr, ptr, ptr, ptr, ptr, ptr, ptr, ptr }
%struct.conf_st = type { ptr, ptr, ptr, i32, i32, ptr, ptr }

@default_CONF_method = internal global ptr null, align 8

; Function Attrs: nounwind uwtable
define void @NCONF_free_data(ptr noundef %0) #0 {
  %2 = alloca ptr, align 8
  store ptr %0, ptr %2, align 8, !tbaa !3
  %3 = load ptr, ptr %2, align 8, !tbaa !3
  %4 = icmp eq ptr %3, null
  br i1 %4, label %5, label %6

5:                                                ; preds = %1
  br label %14

6:                                                ; preds = %1
  %7 = load ptr, ptr %2, align 8, !tbaa !3
  %8 = getelementptr inbounds nuw %struct.conf_st, ptr %7, i32 0, i32 0
  %9 = load ptr, ptr %8, align 8, !tbaa !27
  %10 = getelementptr inbounds nuw %struct.conf_method_st, ptr %9, i32 0, i32 4
  %11 = load ptr, ptr %10, align 8, !tbaa !37
  %12 = load ptr, ptr %2, align 8, !tbaa !3
  %13 = call i32 %11(ptr noundef %12)
  br label %14

14:                                               ; preds = %6, %5
  ret void
}

; Function Attrs: nounwind uwtable
define void @CONF_set_nconf(ptr noundef %0, ptr noundef %1) #0 {
  %3 = alloca ptr, align 8
  %4 = alloca ptr, align 8
  store ptr %0, ptr %3, align 8, !tbaa !3
  store ptr %1, ptr %4, align 8, !tbaa !8
  %5 = load ptr, ptr @default_CONF_method, align 8, !tbaa !10
  %6 = icmp eq ptr %5, null
  br i1 %6, label %7, label %9

7:                                                ; preds = %2
  %8 = call ptr @NCONF_default()
  store ptr %8, ptr @default_CONF_method, align 8, !tbaa !10
  br label %9

9:                                                ; preds = %7, %2
  %10 = load ptr, ptr @default_CONF_method, align 8, !tbaa !10
  %11 = getelementptr inbounds nuw %struct.conf_method_st, ptr %10, i32 0, i32 2
  %12 = load ptr, ptr %11, align 8, !tbaa !12
  %13 = load ptr, ptr %3, align 8, !tbaa !3
  %14 = call i32 %12(ptr noundef %13)
  %15 = load ptr, ptr %4, align 8, !tbaa !8
  %16 = load ptr, ptr %3, align 8, !tbaa !3
  %17 = getelementptr inbounds nuw %struct.conf_st, ptr %16, i32 0, i32 2
  store ptr %15, ptr %17, align 8, !tbaa !15
  ret void
}

; Function Attrs: nounwind uwtable
define void @CONF_free(ptr noundef %0) #0 {
  %2 = alloca ptr, align 8
  %3 = alloca %struct.conf_st, align 8
  store ptr %0, ptr %2, align 8, !tbaa !8
  call void @llvm.lifetime.start.p0(i64 48, ptr %3) #8
  %4 = load ptr, ptr %2, align 8, !tbaa !8
  call void @CONF_set_nconf(ptr noundef %3, ptr noundef %4)
  call void @NCONF_free_data(ptr noundef %3)
  call void @llvm.lifetime.end.p0(i64 48, ptr %3) #8
  ret void
}