; Function Attrs: nounwind uwtable
define void @CONF_free(ptr noundef %0) local_unnamed_addr #0 {
  %2 = alloca %struct.conf_st, align 8
  call void @llvm.lifetime.start.p0(i64 48, ptr nonnull %2) #15
  %3 = load ptr, ptr @default_CONF_method, align 8, !tbaa !3
  %4 = icmp eq ptr %3, null
  br i1 %4, label %5, label %CONF_set_nconf.exit

5:                                                ; preds = %1
  %6 = tail call ptr @NCONF_default() #15
  store ptr %6, ptr @default_CONF_method, align 8, !tbaa !3
  br label %CONF_set_nconf.exit

CONF_set_nconf.exit:                              ; preds = %1, %5
  %7 = phi ptr [ %6, %5 ], [ %3, %1 ]
  %8 = getelementptr inbounds nuw i8, ptr %7, i64 16
  %9 = load ptr, ptr %8, align 8, !tbaa !8
  %10 = call i32 %9(ptr noundef nonnull %2) #15
  %11 = getelementptr inbounds nuw i8, ptr %2, i64 16
  store ptr %0, ptr %11, align 8, !tbaa !11
  %12 = load ptr, ptr %2, align 8, !tbaa !16
  %13 = getelementptr inbounds nuw i8, ptr %12, i64 32
  %14 = load ptr, ptr %13, align 8, !tbaa !25
  %15 = call i32 %14(ptr noundef nonnull %2) #15
  call void @llvm.lifetime.end.p0(i64 48, ptr nonnull %2) #15
  ret void
}